target datalayout = "e-m:e-p270:32:32-p271:32:32-p272:64:64-i64:64-i128:128-f80:128-n8:16:32:64-S128"
target triple = "x86_64-pc-linux-gnu"

; Function Attrs: nounwind uwtable
define internal i32 @docall(ptr noundef %0, i32 noundef %1, i32 noundef %2) #0 {
  %4 = alloca ptr, align 8
  %5 = alloca i32, align 4
  %6 = alloca i32, align 4
  %7 = alloca i32, align 4
  %8 = alloca i32, align 4
  store ptr %0, ptr %4, align 8, !tbaa !14
  store i32 %1, ptr %5, align 4, !tbaa !4
  store i32 %2, ptr %6, align 4, !tbaa !4
  call void @llvm.lifetime.start.p0(i64 4, ptr %7) #5
  call void @llvm.lifetime.start.p0(i64 4, ptr %8) #5
  %9 = load ptr, ptr %4, align 8, !tbaa !14
  %10 = call i32 @lua_gettop(ptr noundef %9)
  %11 = load i32, ptr %5, align 4, !tbaa !4
  %12 = sub nsw i32 %10, %11
  store i32 %12, ptr %8, align 4, !tbaa !4
  %13 = load ptr, ptr %4, align 8, !tbaa !14
  call void @lua_pushcclosure(ptr noundef %13, ptr noundef @traceback, i32 noundef 0)
  %14 = load ptr, ptr %4, align 8, !tbaa !14
  %15 = load i32, ptr %8, align 4, !tbaa !4
  call void @lua_insert(ptr noundef %14, i32 noundef %15)
  %16 = call ptr @signal(i32 noundef 2, ptr noundef @laction) #5
  %17 = load ptr, ptr %4, align 8, !tbaa !14
  %18 = load i32, ptr %5, align 4, !tbaa !4
  %19 = load i32, ptr %6, align 4, !tbaa !4
  %20 = icmp ne i32 %19, 0
  %21 = select i1 %20, i32 0, i32 -1
  %22 = load i32, ptr %8, align 4, !tbaa !4
  %23 = call i32 @lua_pcall(ptr noundef %17, i32 noundef %18, i32 noundef %21, i32 noundef %22)
  store i32 %23, ptr %7, align 4, !tbaa !4
  %24 = call ptr @signal(i32 noundef 2, ptr noundef null) #5
  %25 = load ptr, ptr %4, align 8, !tbaa !14
  %26 = load i32, ptr %8, align 4, !tbaa !4
  call void @lua_remove(ptr noundef %25, i32 noundef %26)
  %27 = load i32, ptr %7, align 4, !tbaa !4
  %28 = icmp ne i32 %27, 0
  br i1 %28, label %29, label %32

29:                                               ; preds = %3
  %30 = load ptr, ptr %4, align 8, !tbaa !14
  %31 = call i32 @lua_gc(ptr noundef %30, i32 noundef 2, i32 noundef 0)
  br label %32

32:                                               ; preds = %29, %3
  %33 = load i32, ptr %7, align 4, !tbaa !4
  call void @llvm.lifetime.end.p0(i64 4, ptr %8) #5
  call void @llvm.lifetime.end.p0(i64 4, ptr %7) #5
  ret i32 %33
}