; Function Attrs: nounwind uwtable
define internal fastcc i32 @docall(ptr noundef %0, i32 noundef %1, i32 noundef range(i32 0, 2) %2) unnamed_addr #0 {
  %4 = tail call i32 @lua_gettop(ptr noundef %0) #9
  %5 = sub nsw i32 %4, %1
  tail call void @lua_pushcclosure(ptr noundef %0, ptr noundef nonnull @traceback, i32 noundef 0) #9
  tail call void @lua_insert(ptr noundef %0, i32 noundef %5) #9
  %6 = tail call ptr @signal(i32 noundef 2, ptr noundef nonnull @laction) #9
  %sext = add nsw i32 %2, -1
  %7 = tail call i32 @lua_pcall(ptr noundef %0, i32 noundef %1, i32 noundef %sext, i32 noundef %5) #9
  %8 = tail call ptr @signal(i32 noundef 2, ptr noundef null) #9
  tail call void @lua_remove(ptr noundef %0, i32 noundef %5) #9
  %.not = icmp eq i32 %7, 0
  br i1 %.not, label %11, label %9

9:                                                ; preds = %3
  %10 = tail call i32 @lua_gc(ptr noundef %0, i32 noundef 2, i32 noundef 0) #9
  br label %11

11:                                               ; preds = %9, %3
  ret i32 %7
}